target datalayout = "e-m:e-p270:32:32-p271:32:32-p272:64:64-i64:64-i128:128-f80:128-n8:16:32:64-S128"
target triple = "x86_64-pc-linux-gnu"

%struct._address = type { i32, i32, ptr, ptr }
%struct._packet_info = type { ptr, ptr, i32, i32, %struct.nstime_t, %struct.nstime_t, %struct.nstime_t, i8, ptr, ptr, ptr, ptr, %struct._address, %struct._address, %struct._address, %struct._address, %struct._address, %struct._address, i32, ptr, i8, [3 x i8], %struct.anon, i32, i32, i32, i32, ptr, i8, ptr, ptr, i16, i16, i32, i32, i16, i32, i32, ptr, ptr, ptr, i8, i8, i16, i16, i16, i32, i16, i16, ptr, ptr, ptr, ptr, ptr, i32, i32 }
%struct.nstime_t = type { i64, i32 }
%struct.anon = type { i8, [3 x i8] }
%struct.reassembly_table = type { ptr, ptr, ptr, ptr, ptr }
%struct._fragment_head = type { ptr, ptr, i32, i32, i32, i32, i32, i32, i32, i8, i32, ptr, ptr }
%struct._frame_data = type <{ i32, i32, i32, i32, i32, [4 x i8], i64, ptr, ptr, ptr, i8, i16, [5 x i8], %struct.nstime_t, %struct.nstime_t, i32, i32 }>

; Function Attrs: null_pointer_is_valid sspstrong uwtable
define internal ptr @insert_fd_head(ptr noundef %0, ptr noundef %1, ptr noundef %2, i32 noundef %3, ptr noundef %4) #1 {
  %6 = alloca ptr, align 8
  %7 = alloca ptr, align 8
  %8 = alloca ptr, align 8
  %9 = alloca i32, align 4
  %10 = alloca ptr, align 8
  %11 = alloca ptr, align 8
  store ptr %0, ptr %6, align 8
  store ptr %1, ptr %7, align 8
  store ptr %2, ptr %8, align 8
  store i32 %3, ptr %9, align 4
  store ptr %4, ptr %10, align 8
  call void @llvm.lifetime.start.p0(i64 8, ptr %11) #16
  %12 = load ptr, ptr %6, align 8
  %13 = getelementptr inbounds nuw %struct.reassembly_table, ptr %12, i32 0, i32 3
  %14 = load ptr, ptr %13, align 8
  %15 = load ptr, ptr %8, align 8
  %16 = load i32, ptr %9, align 4
  %17 = load ptr, ptr %10, align 8
  %18 = call ptr %14(ptr noundef %15, i32 noundef %16, ptr noundef %17)
  store ptr %18, ptr %11, align 8
  %19 = load ptr, ptr %6, align 8
  %20 = getelementptr inbounds nuw %struct.reassembly_table, ptr %19, i32 0, i32 0
  %21 = load ptr, ptr %20, align 8
  %22 = load ptr, ptr %11, align 8
  %23 = load ptr, ptr %7, align 8
  %24 = call i32 @g_hash_table_insert(ptr noundef %21, ptr noundef %22, ptr noundef %23)
  %25 = load ptr, ptr %11, align 8
  call void @llvm.lifetime.end.p0(i64 8, ptr %11) #16
  ret ptr %25
}

; Function Attrs: null_pointer_is_valid sspstrong uwtable
define internal ptr @lookup_fd_head(ptr noundef %0, ptr noundef %1, i32 noundef %2, ptr noundef %3, ptr noundef %4) #1 {
  %6 = alloca ptr, align 8
  %7 = alloca ptr, align 8
  %8 = alloca i32, align 4
  %9 = alloca ptr, align 8
  %10 = alloca ptr, align 8
  %11 = alloca ptr, align 8
  %12 = alloca ptr, align 8
  store ptr %0, ptr %6, align 8
  store ptr %1, ptr %7, align 8
  store i32 %2, ptr %8, align 4
  store ptr %3, ptr %9, align 8
  store ptr %4, ptr %10, align 8
  call void @llvm.lifetime.start.p0(i64 8, ptr %11) #16
  call void @llvm.lifetime.start.p0(i64 8, ptr %12) #16
  %13 = load ptr, ptr %6, align 8
  %14 = getelementptr inbounds nuw %struct.reassembly_table, ptr %13, i32 0, i32 2
  %15 = load ptr, ptr %14, align 8
  %16 = load ptr, ptr %7, align 8
  %17 = load i32, ptr %8, align 4
  %18 = load ptr, ptr %9, align 8
  %19 = call ptr %15(ptr noundef %16, i32 noundef %17, ptr noundef %18)
  store ptr %19, ptr %11, align 8
  %20 = load ptr, ptr %6, align 8
  %21 = getelementptr inbounds nuw %struct.reassembly_table, ptr %20, i32 0, i32 0
  %22 = load ptr, ptr %21, align 8
  %23 = load ptr, ptr %11, align 8
  %24 = load ptr, ptr %10, align 8
  %25 = call i32 @g_hash_table_lookup_extended(ptr noundef %22, ptr noundef %23, ptr noundef %24, ptr noundef %12)
  %26 = icmp ne i32 %25, 0
  br i1 %26, label %28, label %27

27:                                               ; preds = %5
  store ptr null, ptr %12, align 8
  br label %28

28:                                               ; preds = %27, %5
  %29 = load ptr, ptr %6, align 8
  %30 = getelementptr inbounds nuw %struct.reassembly_table, ptr %29, i32 0, i32 4
  %31 = load ptr, ptr %30, align 8
  %32 = load ptr, ptr %11, align 8
  call void %31(ptr noundef %32)
  %33 = load ptr, ptr %12, align 8
  call void @llvm.lifetime.end.p0(i64 8, ptr %12) #16
  call void @llvm.lifetime.end.p0(i64 8, ptr %11) #16
  ret ptr %33
}

; Function Attrs: null_pointer_is_valid sspstrong uwtable
define void @fragment_start_seq_check(ptr noundef %0, ptr noundef %1, i32 noundef %2, ptr noundef %3, i32 noundef %4) #1 {
  %6 = alloca ptr, align 8
  %7 = alloca ptr, align 8
  %8 = alloca i32, align 4
  %9 = alloca ptr, align 8
  %10 = alloca i32, align 4
  %11 = alloca ptr, align 8
  %12 = alloca i32, align 4
  store ptr %0, ptr %6, align 8
  store ptr %1, ptr %7, align 8
  store i32 %2, ptr %8, align 4
  store ptr %3, ptr %9, align 8
  store i32 %4, ptr %10, align 4
  call void @llvm.lifetime.start.p0(i64 8, ptr %11) #16
  %13 = load ptr, ptr %7, align 8
  %14 = getelementptr inbounds nuw %struct._packet_info, ptr %13, i32 0, i32 8
  %15 = load ptr, ptr %14, align 8
  %16 = getelementptr inbounds nuw %struct._frame_data, ptr %15, i32 0, i32 11
  %17 = load i16, ptr %16, align 1
  %18 = lshr i16 %17, 3
  %19 = and i16 %18, 1
  %20 = zext i16 %19 to i32
  %21 = icmp ne i32 %20, 0
  br i1 %21, label %22, label %23

22:                                               ; preds = %5
  store i32 1, ptr %12, align 4
  br label %65

23:                                               ; preds = %5
  %24 = load ptr, ptr %6, align 8
  %25 = load ptr, ptr %7, align 8
  %26 = load i32, ptr %8, align 4
  %27 = load ptr, ptr %9, align 8
  %28 = call ptr @lookup_fd_head(ptr noundef %24, ptr noundef %25, i32 noundef %26, ptr noundef %27, ptr noundef null)
  store ptr %28, ptr %11, align 8
  %29 = load ptr, ptr %11, align 8
  %30 = icmp eq ptr %29, null
  br i1 %30, label %31, label %64

31:                                               ; preds = %23
  %32 = call noalias ptr @g_slice_alloc(i64 noundef 72) #17
  store ptr %32, ptr %11, align 8
  %33 = load ptr, ptr %11, align 8
  %34 = getelementptr inbounds nuw %struct._fragment_head, ptr %33, i32 0, i32 0
  store ptr null, ptr %34, align 8
  %35 = load ptr, ptr %11, align 8
  %36 = getelementptr inbounds nuw %struct._fragment_head, ptr %35, i32 0, i32 1
  store ptr null, ptr %36, align 8
  %37 = load ptr, ptr %11, align 8
  %38 = getelementptr inbounds nuw %struct._fragment_head, ptr %37, i32 0, i32 3
  store i32 0, ptr %38, align 4
  %39 = load ptr, ptr %11, align 8
  %40 = getelementptr inbounds nuw %struct._fragment_head, ptr %39, i32 0, i32 4
  store i32 0, ptr %40, align 8
  %41 = load ptr, ptr %11, align 8
  %42 = getelementptr inbounds nuw %struct._fragment_head, ptr %41, i32 0, i32 5
  store i32 0, ptr %42, align 4
  %43 = load ptr, ptr %11, align 8
  %44 = getelementptr inbounds nuw %struct._fragment_head, ptr %43, i32 0, i32 6
  store i32 0, ptr %44, align 8
  %45 = load i32, ptr %10, align 4
  %46 = load ptr, ptr %11, align 8
  %47 = getelementptr inbounds nuw %struct._fragment_head, ptr %46, i32 0, i32 7
  store i32 %45, ptr %47, align 4
  %48 = load ptr, ptr %11, align 8
  %49 = getelementptr inbounds nuw %struct._fragment_head, ptr %48, i32 0, i32 8
  store i32 0, ptr %49, align 8
  %50 = load ptr, ptr %11, align 8
  %51 = getelementptr inbounds nuw %struct._fragment_head, ptr %50, i32 0, i32 9
  store i8 0, ptr %51, align 4
  %52 = load ptr, ptr %11, align 8
  %53 = getelementptr inbounds nuw %struct._fragment_head, ptr %52, i32 0, i32 10
  store i32 1280, ptr %53, align 8
  %54 = load ptr, ptr %11, align 8
  %55 = getelementptr inbounds nuw %struct._fragment_head, ptr %54, i32 0, i32 11
  store ptr null, ptr %55, align 8
  %56 = load ptr, ptr %11, align 8
  %57 = getelementptr inbounds nuw %struct._fragment_head, ptr %56, i32 0, i32 12
  store ptr null, ptr %57, align 8
  %58 = load ptr, ptr %6, align 8
  %59 = load ptr, ptr %11, align 8
  %60 = load ptr, ptr %7, align 8
  %61 = load i32, ptr %8, align 4
  %62 = load ptr, ptr %9, align 8
  %63 = call ptr @insert_fd_head(ptr noundef %58, ptr noundef %59, ptr noundef %60, i32 noundef %61, ptr noundef %62)
  br label %64

64:                                               ; preds = %31, %23
  store i32 0, ptr %12, align 4
  br label %65

65:                                               ; preds = %64, %22
  call void @llvm.lifetime.end.p0(i64 8, ptr %11) #16
  %66 = load i32, ptr %12, align 4
  switch i32 %66, label %68 [
    i32 0, label %67
    i32 1, label %67
  ]

67:                                               ; preds = %65, %65
  ret void

68:                                               ; preds = %65
  unreachable
}