; Function Attrs: null_pointer_is_valid sspstrong uwtable
define void @fragment_start_seq_check(ptr noundef readonly captures(none) %0, ptr noundef %1, i32 noundef %2, ptr noundef %3, i32 noundef %4) local_unnamed_addr #2 {
  %6 = alloca ptr, align 8
  %7 = getelementptr inbounds nuw i8, ptr %1, i64 80
  %8 = load ptr, ptr %7, align 8
  %9 = getelementptr inbounds nuw i8, ptr %8, i64 57
  %10 = load i16, ptr %9, align 1
  %11 = and i16 %10, 8
  %.not = icmp eq i16 %11, 0
  br i1 %.not, label %12, label %36

12:                                               ; preds = %5
  call void @llvm.lifetime.start.p0(i64 8, ptr nonnull %6) #18
  %13 = getelementptr inbounds nuw i8, ptr %0, i64 16
  %14 = load ptr, ptr %13, align 8
  %15 = tail call ptr %14(ptr noundef %1, i32 noundef %2, ptr noundef %3)
  %16 = load ptr, ptr %0, align 8
  %17 = call i32 @g_hash_table_lookup_extended(ptr noundef %16, ptr noundef %15, ptr noundef null, ptr noundef nonnull %6)
  %.not.i = icmp eq i32 %17, 0
  br i1 %.not.i, label %18, label %lookup_fd_head.exit

18:                                               ; preds = %12
  store ptr null, ptr %6, align 8
  br label %lookup_fd_head.exit

lookup_fd_head.exit:                              ; preds = %12, %18
  %19 = getelementptr inbounds nuw i8, ptr %0, i64 32
  %20 = load ptr, ptr %19, align 8
  call void %20(ptr noundef %15)
  %21 = load ptr, ptr %6, align 8
  call void @llvm.lifetime.end.p0(i64 8, ptr nonnull %6) #18
  %22 = icmp eq ptr %21, null
  br i1 %22, label %23, label %36

23:                                               ; preds = %lookup_fd_head.exit
  %24 = call noalias dereferenceable_or_null(72) ptr @g_slice_alloc(i64 noundef 72) #15
  %25 = getelementptr inbounds nuw i8, ptr %24, i64 20
  %26 = getelementptr inbounds nuw i8, ptr %24, i64 36
  call void @llvm.memset.p0.i64(ptr noundef align 8 dereferenceable(16) %24, i8 0, i64 16, i1 false)
  call void @llvm.memset.p0.i64(ptr noundef nonnull align 4 dereferenceable(16) %25, i8 0, i64 16, i1 false)
  store i32 %4, ptr %26, align 4
  %27 = getelementptr inbounds nuw i8, ptr %24, i64 40
  store i32 0, ptr %27, align 8
  %28 = getelementptr inbounds nuw i8, ptr %24, i64 44
  store i8 0, ptr %28, align 4
  %29 = getelementptr inbounds nuw i8, ptr %24, i64 48
  store i32 1280, ptr %29, align 8
  %30 = getelementptr inbounds nuw i8, ptr %24, i64 56
  %31 = getelementptr inbounds nuw i8, ptr %0, i64 24
  call void @llvm.memset.p0.i64(ptr noundef nonnull align 8 dereferenceable(16) %30, i8 0, i64 16, i1 false)
  %32 = load ptr, ptr %31, align 8
  %33 = call ptr %32(ptr noundef %1, i32 noundef %2, ptr noundef %3)
  %34 = load ptr, ptr %0, align 8
  %35 = call i32 @g_hash_table_insert(ptr noundef %34, ptr noundef %33, ptr noundef %24)
  br label %36

36:                                               ; preds = %lookup_fd_head.exit, %23, %5
  ret void
}